target datalayout = "e-m:e-p270:32:32-p271:32:32-p272:64:64-i64:64-i128:128-f80:128-n8:16:32:64-S128"
target triple = "x86_64-pc-linux-gnu"

%struct.evp_cipher_info_st = type { ptr, [16 x i8] }

@.str.1 = private unnamed_addr constant [32 x i8] c"../openssl/crypto/pem/pem_lib.c\00", align 1
@__func__.PEM_do_header = private unnamed_addr constant [14 x i8] c"PEM_do_header\00", align 1

; Function Attrs: nounwind uwtable
define i32 @PEM_do_header(ptr noundef %0, ptr noundef %1, ptr noundef %2, ptr noundef %3, ptr noundef %4) #0 {
  %6 = alloca i32, align 4
  %7 = alloca ptr, align 8
  %8 = alloca ptr, align 8
  %9 = alloca ptr, align 8
  %10 = alloca ptr, align 8
  %11 = alloca ptr, align 8
  %12 = alloca i32, align 4
  %13 = alloca i32, align 4
  %14 = alloca i64, align 8
  %15 = alloca i32, align 4
  %16 = alloca ptr, align 8
  %17 = alloca [64 x i8], align 16
  %18 = alloca [1024 x i8], align 16
  %19 = alloca i32, align 4
  store ptr %0, ptr %7, align 8, !tbaa !29
  store ptr %1, ptr %8, align 8, !tbaa !3
  store ptr %2, ptr %9, align 8, !tbaa !22
  store ptr %3, ptr %10, align 8, !tbaa !10
  store ptr %4, ptr %11, align 8, !tbaa !10
  call void @llvm.lifetime.start.p0(i64 4, ptr %12) #8
  call void @llvm.lifetime.start.p0(i64 4, ptr %13) #8
  call void @llvm.lifetime.start.p0(i64 8, ptr %14) #8
  %20 = load ptr, ptr %9, align 8, !tbaa !22
  %21 = load i64, ptr %20, align 8, !tbaa !11
  store i64 %21, ptr %14, align 8, !tbaa !11
  call void @llvm.lifetime.start.p0(i64 4, ptr %15) #8
  %22 = load i64, ptr %14, align 8, !tbaa !11
  %23 = trunc i64 %22 to i32
  store i32 %23, ptr %15, align 4, !tbaa !8
  call void @llvm.lifetime.start.p0(i64 8, ptr %16) #8
  call void @llvm.lifetime.start.p0(i64 64, ptr %17) #8
  call void @llvm.lifetime.start.p0(i64 1024, ptr %18) #8
  %24 = load i64, ptr %14, align 8, !tbaa !11
  %25 = icmp sgt i64 %24, 2147483647
  br i1 %25, label %26, label %27

26:                                               ; preds = %5
  call void @ERR_new()
  call void @ERR_set_debug(ptr noundef @.str.1, i32 noundef 457, ptr noundef @__func__.PEM_do_header)
  call void (i32, i32, ptr, ...) @ERR_set_error(i32 noundef 9, i32 noundef 128, ptr noundef null)
  store i32 0, ptr %6, align 4
  store i32 1, ptr %19, align 4
  br label %114

27:                                               ; preds = %5
  %28 = load ptr, ptr %7, align 8, !tbaa !29
  %29 = getelementptr inbounds nuw %struct.evp_cipher_info_st, ptr %28, i32 0, i32 0
  %30 = load ptr, ptr %29, align 8, !tbaa !31
  %31 = icmp eq ptr %30, null
  br i1 %31, label %32, label %33

32:                                               ; preds = %27
  store i32 1, ptr %6, align 4
  store i32 1, ptr %19, align 4
  br label %114

33:                                               ; preds = %27
  %34 = load ptr, ptr %10, align 8, !tbaa !10
  %35 = icmp eq ptr %34, null
  br i1 %35, label %36, label %40

36:                                               ; preds = %33
  %37 = getelementptr inbounds [1024 x i8], ptr %18, i64 0, i64 0
  %38 = load ptr, ptr %11, align 8, !tbaa !10
  %39 = call i32 @PEM_def_callback(ptr noundef %37, i32 noundef 1024, i32 noundef 0, ptr noundef %38)
  store i32 %39, ptr %13, align 4, !tbaa !8
  br label %45

40:                                               ; preds = %33
  %41 = load ptr, ptr %10, align 8, !tbaa !10
  %42 = getelementptr inbounds [1024 x i8], ptr %18, i64 0, i64 0
  %43 = load ptr, ptr %11, align 8, !tbaa !10
  %44 = call i32 %41(ptr noundef %42, i32 noundef 1024, i32 noundef 0, ptr noundef %43)
  store i32 %44, ptr %13, align 4, !tbaa !8
  br label %45

45:                                               ; preds = %40, %36
  %46 = load i32, ptr %13, align 4, !tbaa !8
  %47 = icmp slt i32 %46, 0
  br i1 %47, label %48, label %49

48:                                               ; preds = %45
  call void @ERR_new()
  call void @ERR_set_debug(ptr noundef @.str.1, i32 noundef 469, ptr noundef @__func__.PEM_do_header)
  call void (i32, i32, ptr, ...) @ERR_set_error(i32 noundef 9, i32 noundef 104, ptr noundef null)
  store i32 0, ptr %6, align 4
  store i32 1, ptr %19, align 4
  br label %114

49:                                               ; preds = %45
  %50 = load ptr, ptr %7, align 8, !tbaa !29
  %51 = getelementptr inbounds nuw %struct.evp_cipher_info_st, ptr %50, i32 0, i32 0
  %52 = load ptr, ptr %51, align 8, !tbaa !31
  %53 = call ptr @EVP_md5()
  %54 = load ptr, ptr %7, align 8, !tbaa !29
  %55 = getelementptr inbounds nuw %struct.evp_cipher_info_st, ptr %54, i32 0, i32 1
  %56 = getelementptr inbounds [16 x i8], ptr %55, i64 0, i64 0
  %57 = getelementptr inbounds [1024 x i8], ptr %18, i64 0, i64 0
  %58 = load i32, ptr %13, align 4, !tbaa !8
  %59 = getelementptr inbounds [64 x i8], ptr %17, i64 0, i64 0
  %60 = call i32 @EVP_BytesToKey(ptr noundef %52, ptr noundef %53, ptr noundef %56, ptr noundef %57, i32 noundef %58, i32 noundef 1, ptr noundef %59, ptr noundef null)
  %61 = icmp ne i32 %60, 0
  br i1 %61, label %63, label %62

62:                                               ; preds = %49
  store i32 0, ptr %6, align 4
  store i32 1, ptr %19, align 4
  br label %114

63:                                               ; preds = %49
  %64 = call ptr @EVP_CIPHER_CTX_new()
  store ptr %64, ptr %16, align 8, !tbaa !27
  %65 = load ptr, ptr %16, align 8, !tbaa !27
  %66 = icmp eq ptr %65, null
  br i1 %66, label %67, label %68

67:                                               ; preds = %63
  store i32 0, ptr %6, align 4
  store i32 1, ptr %19, align 4
  br label %114

68:                                               ; preds = %63
  %69 = load ptr, ptr %16, align 8, !tbaa !27
  %70 = load ptr, ptr %7, align 8, !tbaa !29
  %71 = getelementptr inbounds nuw %struct.evp_cipher_info_st, ptr %70, i32 0, i32 0
  %72 = load ptr, ptr %71, align 8, !tbaa !31
  %73 = getelementptr inbounds [64 x i8], ptr %17, i64 0, i64 0
  %74 = load ptr, ptr %7, align 8, !tbaa !29
  %75 = getelementptr inbounds nuw %struct.evp_cipher_info_st, ptr %74, i32 0, i32 1
  %76 = getelementptr inbounds [16 x i8], ptr %75, i64 0, i64 0
  %77 = call i32 @EVP_DecryptInit_ex(ptr noundef %69, ptr noundef %72, ptr noundef null, ptr noundef %73, ptr noundef %76)
  store i32 %77, ptr %12, align 4, !tbaa !8
  %78 = load i32, ptr %12, align 4, !tbaa !8
  %79 = icmp ne i32 %78, 0
  br i1 %79, label %80, label %86

80:                                               ; preds = %68
  %81 = load ptr, ptr %16, align 8, !tbaa !27
  %82 = load ptr, ptr %8, align 8, !tbaa !3
  %83 = load ptr, ptr %8, align 8, !tbaa !3
  %84 = load i32, ptr %15, align 4, !tbaa !8
  %85 = call i32 @EVP_DecryptUpdate(ptr noundef %81, ptr noundef %82, ptr noundef %15, ptr noundef %83, i32 noundef %84)
  store i32 %85, ptr %12, align 4, !tbaa !8
  br label %86

86:                                               ; preds = %80, %68
  %87 = load i32, ptr %12, align 4, !tbaa !8
  %88 = icmp ne i32 %87, 0
  br i1 %88, label %89, label %99

89:                                               ; preds = %86
  %90 = load i32, ptr %15, align 4, !tbaa !8
  %91 = sext i32 %90 to i64
  %92 = load ptr, ptr %9, align 8, !tbaa !22
  store i64 %91, ptr %92, align 8, !tbaa !11
  %93 = load ptr, ptr %16, align 8, !tbaa !27
  %94 = load ptr, ptr %8, align 8, !tbaa !3
  %95 = load i32, ptr %15, align 4, !tbaa !8
  %96 = sext i32 %95 to i64
  %97 = getelementptr inbounds i8, ptr %94, i64 %96
  %98 = call i32 @EVP_DecryptFinal_ex(ptr noundef %93, ptr noundef %97, ptr noundef %15)
  store i32 %98, ptr %12, align 4, !tbaa !8
  br label %99

99:                                               ; preds = %89, %86
  %100 = load i32, ptr %12, align 4, !tbaa !8
  %101 = icmp ne i32 %100, 0
  br i1 %101, label %102, label %108

102:                                              ; preds = %99
  %103 = load i32, ptr %15, align 4, !tbaa !8
  %104 = sext i32 %103 to i64
  %105 = load ptr, ptr %9, align 8, !tbaa !22
  %106 = load i64, ptr %105, align 8, !tbaa !11
  %107 = add nsw i64 %106, %104
  store i64 %107, ptr %105, align 8, !tbaa !11
  br label %109

108:                                              ; preds = %99
  call void @ERR_new()
  call void @ERR_set_debug(ptr noundef @.str.1, i32 noundef 496, ptr noundef @__func__.PEM_do_header)
  call void (i32, i32, ptr, ...) @ERR_set_error(i32 noundef 9, i32 noundef 101, ptr noundef null)
  br label %109

109:                                              ; preds = %108, %102
  %110 = load ptr, ptr %16, align 8, !tbaa !27
  call void @EVP_CIPHER_CTX_free(ptr noundef %110)
  %111 = getelementptr inbounds [1024 x i8], ptr %18, i64 0, i64 0
  call void @OPENSSL_cleanse(ptr noundef %111, i64 noundef 1024)
  %112 = getelementptr inbounds [64 x i8], ptr %17, i64 0, i64 0
  call void @OPENSSL_cleanse(ptr noundef %112, i64 noundef 64)
  %113 = load i32, ptr %12, align 4, !tbaa !8
  store i32 %113, ptr %6, align 4
  store i32 1, ptr %19, align 4
  br label %114

114:                                              ; preds = %109, %67, %62, %48, %32, %26
  call void @llvm.lifetime.end.p0(i64 1024, ptr %18) #8
  call void @llvm.lifetime.end.p0(i64 64, ptr %17) #8
  call void @llvm.lifetime.end.p0(i64 8, ptr %16) #8
  call void @llvm.lifetime.end.p0(i64 4, ptr %15) #8
  call void @llvm.lifetime.end.p0(i64 8, ptr %14) #8
  call void @llvm.lifetime.end.p0(i64 4, ptr %13) #8
  call void @llvm.lifetime.end.p0(i64 4, ptr %12) #8
  %115 = load i32, ptr %6, align 4
  ret i32 %115
}