; Function Attrs: nounwind uwtable
define i32 @PEM_do_header(ptr noundef %0, ptr noundef %1, ptr noundef captures(none) %2, ptr noundef readonly captures(address_is_null) %3, ptr noundef %4) local_unnamed_addr #0 {
  %6 = alloca i32, align 4
  %7 = alloca [64 x i8], align 16
  %8 = alloca [1024 x i8], align 16
  %9 = load i64, ptr %2, align 8, !tbaa !11
  call void @llvm.lifetime.start.p0(i64 4, ptr nonnull %6) #10
  %10 = trunc i64 %9 to i32
  store i32 %10, ptr %6, align 4, !tbaa !20
  call void @llvm.lifetime.start.p0(i64 64, ptr nonnull %7) #10
  call void @llvm.lifetime.start.p0(i64 1024, ptr nonnull %8) #10
  %11 = icmp sgt i64 %9, 2147483647
  br i1 %11, label %12, label %13

12:                                               ; preds = %5
  tail call void @ERR_new() #10
  tail call void @ERR_set_debug(ptr noundef nonnull @.str.1, i32 noundef 457, ptr noundef nonnull @__func__.PEM_do_header) #10
  tail call void (i32, i32, ptr, ...) @ERR_set_error(i32 noundef 9, i32 noundef 128, ptr noundef null) #10
  br label %49

13:                                               ; preds = %5
  %14 = load ptr, ptr %0, align 8, !tbaa !21
  %15 = icmp eq ptr %14, null
  br i1 %15, label %49, label %16

16:                                               ; preds = %13
  %17 = icmp eq ptr %3, null
  br i1 %17, label %18, label %20

18:                                               ; preds = %16
  %19 = call i32 @PEM_def_callback(ptr noundef nonnull %8, i32 noundef 1024, i32 noundef 0, ptr noundef %4)
  br label %22

20:                                               ; preds = %16
  %21 = call i32 %3(ptr noundef nonnull %8, i32 noundef 1024, i32 noundef 0, ptr noundef %4) #10
  br label %22

22:                                               ; preds = %20, %18
  %.029 = phi i32 [ %19, %18 ], [ %21, %20 ]
  %23 = icmp slt i32 %.029, 0
  br i1 %23, label %24, label %25

24:                                               ; preds = %22
  call void @ERR_new() #10
  call void @ERR_set_debug(ptr noundef nonnull @.str.1, i32 noundef 469, ptr noundef nonnull @__func__.PEM_do_header) #10
  call void (i32, i32, ptr, ...) @ERR_set_error(i32 noundef 9, i32 noundef 104, ptr noundef null) #10
  br label %49

25:                                               ; preds = %22
  %26 = load ptr, ptr %0, align 8, !tbaa !21
  %27 = call ptr @EVP_md5() #10
  %28 = getelementptr inbounds nuw i8, ptr %0, i64 8
  %29 = call i32 @EVP_BytesToKey(ptr noundef %26, ptr noundef %27, ptr noundef nonnull %28, ptr noundef nonnull %8, i32 noundef %.029, i32 noundef 1, ptr noundef nonnull %7, ptr noundef null) #10
  %.not = icmp eq i32 %29, 0
  br i1 %.not, label %49, label %30

30:                                               ; preds = %25
  %31 = call ptr @EVP_CIPHER_CTX_new() #10
  %32 = icmp eq ptr %31, null
  br i1 %32, label %49, label %33

33:                                               ; preds = %30
  %34 = load ptr, ptr %0, align 8, !tbaa !21
  %35 = call i32 @EVP_DecryptInit_ex(ptr noundef nonnull %31, ptr noundef %34, ptr noundef null, ptr noundef nonnull %7, ptr noundef nonnull %28) #10
  %.not33 = icmp eq i32 %35, 0
  br i1 %.not33, label %.critedge.thread, label %36

36:                                               ; preds = %33
  %37 = call i32 @EVP_DecryptUpdate(ptr noundef nonnull %31, ptr noundef %1, ptr noundef nonnull %6, ptr noundef %1, i32 noundef %10) #10
  %38 = icmp eq i32 %37, 0
  br i1 %38, label %.critedge.thread, label %.critedge

.critedge:                                        ; preds = %36
  %39 = load i32, ptr %6, align 4, !tbaa !20
  %40 = sext i32 %39 to i64
  store i64 %40, ptr %2, align 8, !tbaa !11
  %41 = getelementptr inbounds i8, ptr %1, i64 %40
  %42 = call i32 @EVP_DecryptFinal_ex(ptr noundef nonnull %31, ptr noundef %41, ptr noundef nonnull %6) #10
  %.not35 = icmp eq i32 %42, 0
  br i1 %.not35, label %.critedge.thread, label %43

43:                                               ; preds = %.critedge
  %44 = load i32, ptr %6, align 4, !tbaa !20
  %45 = sext i32 %44 to i64
  %46 = load i64, ptr %2, align 8, !tbaa !11
  %47 = add nsw i64 %46, %45
  store i64 %47, ptr %2, align 8, !tbaa !11
  br label %48

.critedge.thread:                                 ; preds = %33, %36, %.critedge
  call void @ERR_new() #10
  call void @ERR_set_debug(ptr noundef nonnull @.str.1, i32 noundef 496, ptr noundef nonnull @__func__.PEM_do_header) #10
  call void (i32, i32, ptr, ...) @ERR_set_error(i32 noundef 9, i32 noundef 101, ptr noundef null) #10
  br label %48

48:                                               ; preds = %.critedge.thread, %43
  %.138 = phi i32 [ 0, %.critedge.thread ], [ %42, %43 ]
  call void @EVP_CIPHER_CTX_free(ptr noundef nonnull %31) #10
  call void @OPENSSL_cleanse(ptr noundef nonnull %8, i64 noundef 1024) #10
  call void @OPENSSL_cleanse(ptr noundef nonnull %7, i64 noundef 64) #10
  br label %49

49:                                               ; preds = %30, %25, %13, %48, %24, %12
  %.0 = phi i32 [ 0, %12 ], [ 0, %24 ], [ %.138, %48 ], [ 1, %13 ], [ 0, %25 ], [ 0, %30 ]
  call void @llvm.lifetime.end.p0(i64 1024, ptr nonnull %8) #10
  call void @llvm.lifetime.end.p0(i64 64, ptr nonnull %7) #10
  call void @llvm.lifetime.end.p0(i64 4, ptr nonnull %6) #10
  ret i32 %.0
}